; Function Attrs: nounwind sspstrong uwtable
define internal range(i64 1, 131072) i64 @addrinfo_ip_port(i64 noundef %0) #0 {
  %2 = tail call ptr @rb_check_typeddata(i64 noundef %0, ptr noundef nonnull @addrinfo_type) #21
  %.not.i = icmp eq ptr %2, null
  br i1 %.not.i, label %3, label %get_addrinfo.exit

3:                                                ; preds = %1
  %4 = load i64, ptr @rb_eTypeError, align 8, !tbaa !35
  tail call void (i64, ptr, ...) @rb_raise(i64 noundef %4, ptr noundef nonnull @.str.101) #23
  unreachable

get_addrinfo.exit:                                ; preds = %1
  %5 = getelementptr inbounds nuw i8, ptr %2, i64 28
  %6 = load i32, ptr %5, align 4, !tbaa !118
  %7 = icmp ugt i32 %6, 1
  br i1 %7, label %ai_get_afamily.exit, label %ai_get_afamily.exit.thread

ai_get_afamily.exit:                              ; preds = %get_addrinfo.exit
  %8 = getelementptr inbounds nuw i8, ptr %2, i64 32
  %9 = load i16, ptr %8, align 2, !tbaa !91
  %10 = and i16 %9, -9
  %or.cond = icmp eq i16 %10, 2
  br i1 %or.cond, label %12, label %ai_get_afamily.exit.thread

ai_get_afamily.exit.thread:                       ; preds = %get_addrinfo.exit, %12, %ai_get_afamily.exit
  %11 = load i64, ptr @rb_eSocket, align 8, !tbaa !35
  tail call void (i64, ptr, ...) @rb_raise(i64 noundef %11, ptr noundef nonnull @.str.121) #23
  unreachable

12:                                               ; preds = %ai_get_afamily.exit
  switch i16 %9, label %ai_get_afamily.exit.thread [
    i16 2, label %13
    i16 10, label %16
  ]

13:                                               ; preds = %12
  %.not10 = icmp eq i32 %6, 16
  br i1 %.not10, label %19, label %14

14:                                               ; preds = %13
  %15 = load i64, ptr @rb_eSocket, align 8, !tbaa !35
  tail call void (i64, ptr, ...) @rb_raise(i64 noundef %15, ptr noundef nonnull @.str.122) #23
  unreachable

16:                                               ; preds = %12
  %.not = icmp eq i32 %6, 28
  br i1 %.not, label %19, label %17

17:                                               ; preds = %16
  %18 = load i64, ptr @rb_eSocket, align 8, !tbaa !35
  tail call void (i64, ptr, ...) @rb_raise(i64 noundef %18, ptr noundef nonnull @.str.123) #23
  unreachable

19:                                               ; preds = %16, %13
  %20 = getelementptr inbounds nuw i8, ptr %2, i64 34
  %21 = load i16, ptr %20, align 2, !tbaa !49
  %rev.i11 = tail call noundef i16 @llvm.bswap.i16(i16 %21)
  %22 = zext i16 %rev.i11 to i64
  %23 = shl nuw nsw i64 %22, 1
  %24 = or disjoint i64 %23, 1
  ret i64 %24
}